; Function Attrs: nounwind uwtable
define zeroext range(i8 0, 2) i8 @l_Array_forIn_x27Unsafe_loop___at_Lean_Elab_Tactic_BVDecide_Frontend_Normalize_intToBitVecPass_detectSize___spec__6___lambda__1(ptr noundef %0) local_unnamed_addr #1 {
  %2 = load ptr, ptr @l_Array_forIn_x27Unsafe_loop___at_Lean_Elab_Tactic_BVDecide_Frontend_Normalize_intToBitVecPass_detectSize___spec__6___lambda__1___closed__3, align 8, !tbaa !9
  %3 = tail call zeroext i8 @l_Lean_Expr_isAppOfArity(ptr noundef %0, ptr noundef %2, ptr noundef nonnull inttoptr (i64 3 to ptr)) #4
  %4 = icmp eq i8 %3, 0
  br i1 %4, label %5, label %.sink.split

5:                                                ; preds = %1
  %6 = load ptr, ptr @l_Array_forIn_x27Unsafe_loop___at_Lean_Elab_Tactic_BVDecide_Frontend_Normalize_intToBitVecPass_detectSize___spec__6___lambda__1___closed__5, align 8, !tbaa !9
  %7 = tail call zeroext i8 @l_Lean_Expr_isAppOfArity(ptr noundef %0, ptr noundef %6, ptr noundef nonnull inttoptr (i64 3 to ptr)) #4
  %8 = icmp eq i8 %7, 0
  br i1 %8, label %12, label %.sink.split

.sink.split:                                      ; preds = %1, %5
  %9 = tail call zeroext i8 @l_Lean_Expr_hasLooseBVars(ptr noundef %0) #4
  %10 = icmp eq i8 %9, 0
  %11 = zext i1 %10 to i8
  br label %12

12:                                               ; preds = %.sink.split, %5
  %.2.shrunk = phi i8 [ 0, %5 ], [ %11, %.sink.split ]
  ret i8 %.2.shrunk
}